(lp0
(ibackend
publicacion
p1
(dp2
S'habitaciones'
p3
V1
p4
sS'precio'
p5
V250000
p6
sS'banos'
p7
V1
p8
sS'correo'
p9
Vrasta@incofer.com
p10
sS'ubicacion'
p11
V(9.853073794969285, -83.88198852539062)
p12
sS'descripcion'
p13
Vcerca del tec
p14
sS'titulo'
p15
VAparta de la esquina
p16
sS'facilidades'
p17
(lp18
VLuz
p19
aVAgua
p20
aVInternet
p21
asS'telefono'
p22
V800-yodo
p23
sS'estacionamientos'
p24
V0
p25
sba.