(lp0
(ibackend
publicacion
p1
(dp2
S'habitaciones'
p3
V1
p4
sS'precio'
p5
V250000
p6
sS'banos'
p7
V1
p8
sS'correo'
p9
Vquinto@quinto.cr
p10
sS'ubicacion'
p11
V(9.832710031670592, -83.69110107421875)
p12
sS'descripcion'
p13
Vcerca del tec
p14
sS'titulo'
p15
VAparta de la esquina
p16
sS'facilidades'
p17
(lp18
VLuz
p19
asS'telefono'
p20
V555-8888
p21
sS'estacionamientos'
p22
V0
p23
sba.