(lp0
(ibackend
publicacion
p1
(dp2
S'habitaciones'
p3
V3
p4
sS'precio'
p5
V250000
p6
sS'banos'
p7
V2
p8
sS'correo'
p9
Vcartago@cr.com
p10
sS'ubicacion'
p11
V(9.874975316739532, -83.92181396484375)
p12
sS'descripcion'
p13
Vcerca del tec
p14
sS'titulo'
p15
VAparta de la esquina
p16
sS'facilidades'
p17
(lp18
VTV
p19
aVLuz
p20
aVAmueblado
p21
asS'telefono'
p22
V555-8888
p23
sS'estacionamientos'
p24
V1
p25
sba.